(dp0
Vengine
p1
Vpdflatex
p2
sVpackages
p3
c__builtin__
set
p4
((lp5
Vlscape
p6
aVtablefootnote
p7
aVtikz
p8
aVcprotect
p9
aVtodonotes
p10
atp11
Rp12
sVfiles_with_guttermarks
p13
g4
((lp14
V/Users/matthewjdenny/Dropbox/PINLab/REmail/Tech_Report/REmail_Tech_Report.tex
p15
aS'REmail_Tech_Report.tex'
p16
aV/Users/matthewjdenny/Dropbox/PINLab/REmail/Tech_Report/./MJDArticle.cls
p17
aV/Users/matthewjdenny/Dropbox/PINLab/REmail/Tech_Report/./REmail_Tech_Report.tex
p18
atp19
Rp20
sVsynctex
p21
I01
s.